Certificate:
    Data:
        Version: 3 (0x2)
        Serial Number:
            fe:07:9e:95:43:92:92:ce
        Signature Algorithm: sha1WithRSAEncryption
        Issuer: C=NL, ST=Utrecht, O=SURFnet BV, CN=OpenConext/emailAddress=support@openconext.org
        Validity
            Not Before: Jun  6 10:56:29 2012 GMT
            Not After : Jun  6 10:56:29 2013 GMT
        Subject: C=NL, ST=Utrecht, L=Utrecht, O=SURFnet BV, CN=*.demo.openconext.org/emailAddress=support@openconext.org
        Subject Public Key Info:
            Public Key Algorithm: rsaEncryption
            RSA Public Key: (1024 bit)
                Modulus (1024 bit):
                    00:bc:d3:1f:93:95:e9:db:7c:89:7e:86:9b:d5:0e:
                    5f:5a:ad:ce:a6:80:fc:79:b0:09:60:3e:58:2a:6e:
                    0b:3e:87:1b:1d:0a:d0:17:40:0b:09:de:d1:a8:80:
                    16:36:bf:3c:b1:15:c2:96:bb:68:8a:cc:fa:73:aa:
                    81:14:66:63:ea:05:71:a3:4f:6c:c0:20:61:e7:24:
                    8d:96:ba:e6:7a:1b:bb:4a:b6:be:6f:04:88:a9:f3:
                    f4:30:9a:c7:de:f1:90:5b:d7:b1:c9:e3:91:18:20:
                    14:a7:68:9e:36:8c:16:27:36:7e:35:68:c8:a8:e6:
                    da:ca:d8:d3:c5:0e:38:fb:bd
                Exponent: 65537 (0x10001)
        X509v3 extensions:
            X509v3 Basic Constraints: 
                CA:FALSE
            Netscape Cert Type: 
                SSL Server
            X509v3 Key Usage: 
                Digital Signature, Key Encipherment
            X509v3 Extended Key Usage: 
                TLS Web Server Authentication, Netscape Server Gated Crypto, Microsoft Server Gated Crypto
            Netscape Comment: 
                OpenSSL Certificate for SSL Web Server
    Signature Algorithm: sha1WithRSAEncryption
        3c:d4:15:70:a0:31:8d:41:62:e9:fb:db:fe:26:03:ff:60:9e:
        e8:13:e2:f9:df:45:67:8e:69:0a:00:25:af:73:9e:65:d5:fe:
        69:30:e4:f4:a7:a6:4d:1e:25:f5:c5:8d:b6:47:be:38:f3:0a:
        43:c3:43:99:3a:da:41:54:ce:3c:94:fc:c7:c1:a7:df:b4:f3:
        26:57:c4:c2:d0:a5:da:8a:fd:fc:6c:8b:4d:e2:98:14:32:26:
        aa:14:6f:72:4c:ba:09:b7:bb:b4:8b:2c:0b:07:70:1d:27:f0:
        c0:6a:68:e3:17:c7:39:f6:62:4f:70:b1:ed:4a:e8:72:3a:1f:
        29:08
-----BEGIN CERTIFICATE-----
MIIDDjCCAnegAwIBAgIJAP4HnpVDkpLOMA0GCSqGSIb3DQEBBQUAMHAxCzAJBgNV
BAYTAk5MMRAwDgYDVQQIEwdVdHJlY2h0MRMwEQYDVQQKEwpTVVJGbmV0IEJWMRMw
EQYDVQQDEwpPcGVuQ29uZXh0MSUwIwYJKoZIhvcNAQkBFhZzdXBwb3J0QG9wZW5j
b25leHQub3JnMB4XDTEyMDYwNjEwNTYyOVoXDTEzMDYwNjEwNTYyOVowgY0xCzAJ
BgNVBAYTAk5MMRAwDgYDVQQIEwdVdHJlY2h0MRAwDgYDVQQHEwdVdHJlY2h0MRMw
EQYDVQQKEwpTVVJGbmV0IEJWMR4wHAYDVQQDFBUqLmRlbW8ub3BlbmNvbmV4dC5v
cmcxJTAjBgkqhkiG9w0BCQEWFnN1cHBvcnRAb3BlbmNvbmV4dC5vcmcwgZ8wDQYJ
KoZIhvcNAQEBBQADgY0AMIGJAoGBALzTH5OV6dt8iX6Gm9UOX1qtzqaA/HmwCWA+
WCpuCz6HGx0K0BdACwne0aiAFja/PLEVwpa7aIrM+nOqgRRmY+oFcaNPbMAgYeck
jZa65nobu0q2vm8EiKnz9DCax97xkFvXscnjkRggFKdonjaMFic2fjVoyKjm2srY
08UOOPu9AgMBAAGjgZEwgY4wCQYDVR0TBAIwADARBglghkgBhvhCAQEEBAMCBkAw
CwYDVR0PBAQDAgWgMCoGA1UdJQQjMCEGCCsGAQUFBwMBBglghkgBhvhCBAEGCisG
AQQBgjcKAwMwNQYJYIZIAYb4QgENBCgWJk9wZW5TU0wgQ2VydGlmaWNhdGUgZm9y
IFNTTCBXZWIgU2VydmVyMA0GCSqGSIb3DQEBBQUAA4GBADzUFXCgMY1BYun72/4m
A/9gnugT4vnfRWeOaQoAJa9znmXV/mkw5PSnpk0eJfXFjbZHvjjzCkPDQ5k62kFU
zjyU/MfBp9+08yZXxMLQpdqK/fxsi03imBQyJqoUb3JMugm3u7SLLAsHcB0n8MBq
aOMXxzn2Yk9wse1K6HI6HykI
-----END CERTIFICATE-----
